; Function Attrs: nounwind uwtable
define ptr @l___private_Lean_Data_RArray_0__Lean_RArray_get__eq__def_match__1_splitter___rarg(ptr noundef %0, ptr noundef %1, ptr noundef %2) #0 {
  %4 = ptrtoint ptr %0 to i64
  %5 = and i64 %4, 1
  %.not.i34 = icmp eq i64 %5, 0
  br i1 %.not.i34, label %9, label %6

6:                                                ; preds = %3
  %7 = lshr i64 %4, 1
  %8 = trunc i64 %7 to i32
  br label %lean_obj_tag.exit

9:                                                ; preds = %3
  %10 = getelementptr i8, ptr %0, i64 4
  %.val.i = load i32, ptr %10, align 4
  %11 = lshr i32 %.val.i, 24
  br label %lean_obj_tag.exit

lean_obj_tag.exit:                                ; preds = %6, %9
  %.0.i = phi i32 [ %8, %6 ], [ %11, %9 ]
  %12 = icmp eq i32 %.0.i, 0
  br i1 %12, label %13, label %41

13:                                               ; preds = %lean_obj_tag.exit
  %14 = ptrtoint ptr %2 to i64
  %15 = and i64 %14, 1
  %.not50 = icmp eq i64 %15, 0
  br i1 %.not50, label %16, label %lean_dec.exit24

16:                                               ; preds = %13
  %17 = load i32, ptr %2, align 4, !tbaa !6
  %18 = icmp sgt i32 %17, 1
  br i1 %18, label %19, label %21, !prof !5

19:                                               ; preds = %16
  %20 = add nsw i32 %17, -1
  store i32 %20, ptr %2, align 4, !tbaa !6
  br label %lean_dec.exit24

21:                                               ; preds = %16
  %.not.i = icmp eq i32 %17, 0
  br i1 %.not.i, label %lean_dec.exit24, label %22

22:                                               ; preds = %21
  tail call void @lean_dec_ref_cold(ptr noundef nonnull %2) #3
  br label %lean_dec.exit24

lean_dec.exit24:                                  ; preds = %22, %21, %19, %13
  %23 = getelementptr inbounds nuw i8, ptr %0, i64 8
  %24 = load ptr, ptr %23, align 8, !tbaa !11
  %25 = ptrtoint ptr %24 to i64
  %26 = and i64 %25, 1
  %.not51 = icmp eq i64 %26, 0
  br i1 %.not51, label %27, label %lean_inc.exit27

27:                                               ; preds = %lean_dec.exit24
  %.val.i35 = load i32, ptr %24, align 4, !tbaa !6
  %28 = icmp sgt i32 %.val.i35, 0
  br i1 %28, label %29, label %31, !prof !5

29:                                               ; preds = %27
  %30 = add nuw i32 %.val.i35, 1
  store i32 %30, ptr %24, align 4, !tbaa !6
  br label %lean_inc.exit27

31:                                               ; preds = %27
  %.not.i36 = icmp eq i32 %.val.i35, 0
  br i1 %.not.i36, label %lean_inc.exit27, label %32

32:                                               ; preds = %31
  tail call void @lean_inc_ref_cold(ptr noundef nonnull %24) #3
  br label %lean_inc.exit27

lean_inc.exit27:                                  ; preds = %32, %31, %29, %lean_dec.exit24
  br i1 %.not.i34, label %33, label %lean_dec.exit23

33:                                               ; preds = %lean_inc.exit27
  %34 = load i32, ptr %0, align 4, !tbaa !6
  %35 = icmp sgt i32 %34, 1
  br i1 %35, label %36, label %38, !prof !5

36:                                               ; preds = %33
  %37 = add nsw i32 %34, -1
  store i32 %37, ptr %0, align 4, !tbaa !6
  br label %lean_dec.exit23

38:                                               ; preds = %33
  %.not.i28 = icmp eq i32 %34, 0
  br i1 %.not.i28, label %lean_dec.exit23, label %39

39:                                               ; preds = %38
  tail call void @lean_dec_ref_cold(ptr noundef nonnull %0) #3
  br label %lean_dec.exit23

lean_dec.exit23:                                  ; preds = %39, %38, %36, %lean_inc.exit27
  %40 = tail call ptr @lean_apply_1(ptr noundef %1, ptr noundef %24) #3
  br label %89

41:                                               ; preds = %lean_obj_tag.exit
  %42 = ptrtoint ptr %1 to i64
  %43 = and i64 %42, 1
  %.not = icmp eq i64 %43, 0
  br i1 %.not, label %44, label %lean_dec.exit22

44:                                               ; preds = %41
  %45 = load i32, ptr %1, align 4, !tbaa !6
  %46 = icmp sgt i32 %45, 1
  br i1 %46, label %47, label %49, !prof !5

47:                                               ; preds = %44
  %48 = add nsw i32 %45, -1
  store i32 %48, ptr %1, align 4, !tbaa !6
  br label %lean_dec.exit22

49:                                               ; preds = %44
  %.not.i30 = icmp eq i32 %45, 0
  br i1 %.not.i30, label %lean_dec.exit22, label %50

50:                                               ; preds = %49
  tail call void @lean_dec_ref_cold(ptr noundef nonnull %1) #3
  br label %lean_dec.exit22

lean_dec.exit22:                                  ; preds = %50, %49, %47, %41
  %51 = getelementptr inbounds nuw i8, ptr %0, i64 8
  %52 = load ptr, ptr %51, align 8, !tbaa !11
  %53 = ptrtoint ptr %52 to i64
  %54 = and i64 %53, 1
  %.not46 = icmp eq i64 %54, 0
  br i1 %.not46, label %55, label %lean_inc.exit26

55:                                               ; preds = %lean_dec.exit22
  %.val.i37 = load i32, ptr %52, align 4, !tbaa !6
  %56 = icmp sgt i32 %.val.i37, 0
  br i1 %56, label %57, label %59, !prof !5

57:                                               ; preds = %55
  %58 = add nuw i32 %.val.i37, 1
  store i32 %58, ptr %52, align 4, !tbaa !6
  br label %lean_inc.exit26

59:                                               ; preds = %55
  %.not.i38 = icmp eq i32 %.val.i37, 0
  br i1 %.not.i38, label %lean_inc.exit26, label %60

60:                                               ; preds = %59
  tail call void @lean_inc_ref_cold(ptr noundef nonnull %52) #3
  br label %lean_inc.exit26

lean_inc.exit26:                                  ; preds = %60, %59, %57, %lean_dec.exit22
  %61 = getelementptr inbounds nuw i8, ptr %0, i64 16
  %62 = load ptr, ptr %61, align 8, !tbaa !11
  %63 = ptrtoint ptr %62 to i64
  %64 = and i64 %63, 1
  %.not47 = icmp eq i64 %64, 0
  br i1 %.not47, label %65, label %lean_inc.exit25

65:                                               ; preds = %lean_inc.exit26
  %.val.i40 = load i32, ptr %62, align 4, !tbaa !6
  %66 = icmp sgt i32 %.val.i40, 0
  br i1 %66, label %67, label %69, !prof !5

67:                                               ; preds = %65
  %68 = add nuw i32 %.val.i40, 1
  store i32 %68, ptr %62, align 4, !tbaa !6
  br label %lean_inc.exit25

69:                                               ; preds = %65
  %.not.i41 = icmp eq i32 %.val.i40, 0
  br i1 %.not.i41, label %lean_inc.exit25, label %70

70:                                               ; preds = %69
  tail call void @lean_inc_ref_cold(ptr noundef nonnull %62) #3
  br label %lean_inc.exit25

lean_inc.exit25:                                  ; preds = %70, %69, %67, %lean_inc.exit26
  %71 = getelementptr inbounds nuw i8, ptr %0, i64 24
  %72 = load ptr, ptr %71, align 8, !tbaa !11
  %73 = ptrtoint ptr %72 to i64
  %74 = and i64 %73, 1
  %.not48 = icmp eq i64 %74, 0
  br i1 %.not48, label %75, label %lean_inc.exit

75:                                               ; preds = %lean_inc.exit25
  %.val.i43 = load i32, ptr %72, align 4, !tbaa !6
  %76 = icmp sgt i32 %.val.i43, 0
  br i1 %76, label %77, label %79, !prof !5

77:                                               ; preds = %75
  %78 = add nuw i32 %.val.i43, 1
  store i32 %78, ptr %72, align 4, !tbaa !6
  br label %lean_inc.exit

79:                                               ; preds = %75
  %.not.i44 = icmp eq i32 %.val.i43, 0
  br i1 %.not.i44, label %lean_inc.exit, label %80

80:                                               ; preds = %79
  tail call void @lean_inc_ref_cold(ptr noundef nonnull %72) #3
  br label %lean_inc.exit

lean_inc.exit:                                    ; preds = %80, %79, %77, %lean_inc.exit25
  br i1 %.not.i34, label %81, label %lean_dec.exit

81:                                               ; preds = %lean_inc.exit
  %82 = load i32, ptr %0, align 4, !tbaa !6
  %83 = icmp sgt i32 %82, 1
  br i1 %83, label %84, label %86, !prof !5

84:                                               ; preds = %81
  %85 = add nsw i32 %82, -1
  store i32 %85, ptr %0, align 4, !tbaa !6
  br label %lean_dec.exit

86:                                               ; preds = %81
  %.not.i32 = icmp eq i32 %82, 0
  br i1 %.not.i32, label %lean_dec.exit, label %87

87:                                               ; preds = %86
  tail call void @lean_dec_ref_cold(ptr noundef nonnull %0) #3
  br label %lean_dec.exit

lean_dec.exit:                                    ; preds = %87, %86, %84, %lean_inc.exit
  %88 = tail call ptr @lean_apply_3(ptr noundef %2, ptr noundef %52, ptr noundef %62, ptr noundef %72) #3
  br label %89

89:                                               ; preds = %lean_dec.exit, %lean_dec.exit23
  %.0 = phi ptr [ %40, %lean_dec.exit23 ], [ %88, %lean_dec.exit ]
  ret ptr %.0
}